ccopy_reg
_reconstructor
p1
(ctheano.tensor.sharedvar
TensorSharedVariable
p2
c__builtin__
object
p3
NtRp4
(dp5
S'auto_name'
p6
S'auto_8'
p7
sS'index'
p8
NsS'tag'
p9
(itheano.gof.utils
scratchpad
p10
(dp11
S'trace'
p12
(lp13
(S'c:\\users\\bargav_jayaraman\\downloads\\theano\\theano\\compile\\sharedvalue.py'
p14
I212
S'shared'
p15
S'utils.add_tag_trace(var)'
tp16
asbsS'container'
p17
g1
(ctheano.gof.link
Container
p18
g3
NtRp19
(dp20
S'name'
p21
S'b'
sS'storage'
p22
(lp23
cnumpy.core.multiarray
_reconstruct
p24
(cnumpy
ndarray
p25
(I0
tS'b'
tRp26
(I1
(I2
tcnumpy
dtype
p27
(S'f4'
I0
I1
tRp28
(I3
S'<'
NNNI-1
I-1
I0
tbI00
S'\x18\xd5]?U\xdf]\xbf'
tbasS'strict'
p29
I00
sS'readonly'
p30
I00
sS'type'
p31
g1
(ctheano.tensor.type
TensorType
p32
g3
NtRp33
(dp34
S'broadcastable'
p35
(I00
tp36
sS'dtype'
p37
S'float32'
p38
sS'numpy_dtype'
p39
g28
sS'sparse_grad'
p40
I00
sg21
NsbsS'allow_downcast'
p41
Nsbsg21
S'b'
sS'owner'
p42
Nsg31
g33
sb.